target datalayout = "e-m:e-p270:32:32-p271:32:32-p272:64:64-i64:64-i128:128-f80:128-n8:16:32:64-S128"
target triple = "x86_64-unknown-linux-gnu"

%"class.std::_Function_base" = type { %"union.std::_Any_data", ptr }
%"union.std::_Any_data" = type { %"union.std::_Nocopy_types" }
%"union.std::_Nocopy_types" = type { { i64, i64 } }
%class.anon.46 = type { ptr }
%"class.std::function.47" = type { %"class.std::_Function_base", ptr }

; Function Attrs: mustprogress nounwind uwtable
define linkonce_odr noundef zeroext i1 @_ZNKSt14_Function_base8_M_emptyEv(ptr noundef nonnull align 8 dereferenceable(24) %this) #1 comdat align 2 {
entry:
  %this.addr = alloca ptr, align 8
  store ptr %this, ptr %this.addr, align 8
  %this1 = load ptr, ptr %this.addr, align 8
  %_M_manager = getelementptr inbounds %"class.std::_Function_base", ptr %this1, i32 0, i32 1
  %0 = load ptr, ptr %_M_manager, align 8
  %tobool = icmp ne ptr %0, null
  %lnot = xor i1 %tobool, true
  ret i1 %lnot
}

; Function Attrs: mustprogress uwtable
define linkonce_odr void @_ZNKSt8functionIFvllllEEclEllll(ptr noundef nonnull align 8 dereferenceable(32) %this, i64 noundef %__args, i64 noundef %__args1, i64 noundef %__args3, i64 noundef %__args5) #6 comdat align 2 {
entry:
  %this.addr = alloca ptr, align 8
  %__args.addr = alloca i64, align 8
  %__args.addr2 = alloca i64, align 8
  %__args.addr4 = alloca i64, align 8
  %__args.addr6 = alloca i64, align 8
  store ptr %this, ptr %this.addr, align 8
  store i64 %__args, ptr %__args.addr, align 8
  store i64 %__args1, ptr %__args.addr2, align 8
  store i64 %__args3, ptr %__args.addr4, align 8
  store i64 %__args5, ptr %__args.addr6, align 8
  %this7 = load ptr, ptr %this.addr, align 8
  %call = call noundef zeroext i1 @_ZNKSt14_Function_base8_M_emptyEv(ptr noundef nonnull align 8 dereferenceable(24) %this7)
  br i1 %call, label %if.then, label %if.end

if.then:                                          ; preds = %entry
  call void @_ZSt25__throw_bad_function_callv() #20
  unreachable

if.end:                                           ; preds = %entry
  %_M_invoker = getelementptr inbounds %"class.std::function.47", ptr %this7, i32 0, i32 1
  %0 = load ptr, ptr %_M_invoker, align 8
  %_M_functor = getelementptr inbounds %"class.std::_Function_base", ptr %this7, i32 0, i32 0
  call void %0(ptr noundef nonnull align 8 dereferenceable(16) %_M_functor, ptr noundef nonnull align 8 dereferenceable(8) %__args.addr, ptr noundef nonnull align 8 dereferenceable(8) %__args.addr2, ptr noundef nonnull align 8 dereferenceable(8) %__args.addr4, ptr noundef nonnull align 8 dereferenceable(8) %__args.addr6)
  ret void
}

; Function Attrs: mustprogress uwtable
define internal void @"_ZZN18OpenImageIO_v2_6_023parallel_for_chunked_2DEllllllOSt8functionIFvllllEENS_6paroptEENK3$_0clEillll"(ptr noundef nonnull align 8 dereferenceable(8) %this, i32 noundef %0, i64 noundef %xb, i64 noundef %xe, i64 noundef %yb, i64 noundef %ye) #6 align 2 {
entry:
  %this.addr = alloca ptr, align 8
  %.addr = alloca i32, align 4
  %xb.addr = alloca i64, align 8
  %xe.addr = alloca i64, align 8
  %yb.addr = alloca i64, align 8
  %ye.addr = alloca i64, align 8
  store ptr %this, ptr %this.addr, align 8
  store i32 %0, ptr %.addr, align 4
  store i64 %xb, ptr %xb.addr, align 8
  store i64 %xe, ptr %xe.addr, align 8
  store i64 %yb, ptr %yb.addr, align 8
  store i64 %ye, ptr %ye.addr, align 8
  %this1 = load ptr, ptr %this.addr, align 8
  %1 = getelementptr inbounds %class.anon.46, ptr %this1, i32 0, i32 0
  %2 = load ptr, ptr %1, align 8
  %3 = load i64, ptr %xb.addr, align 8
  %4 = load i64, ptr %xe.addr, align 8
  %5 = load i64, ptr %yb.addr, align 8
  %6 = load i64, ptr %ye.addr, align 8
  call void @_ZNKSt8functionIFvllllEEclEllll(ptr noundef nonnull align 8 dereferenceable(32) %2, i64 noundef %3, i64 noundef %4, i64 noundef %5, i64 noundef %6)
  ret void
}

; Function Attrs: mustprogress nounwind uwtable
define linkonce_odr noundef ptr @_ZNKSt9_Any_data9_M_accessEv(ptr noundef nonnull align 8 dereferenceable(16) %this) #1 comdat align 2 {
entry:
  %this.addr = alloca ptr, align 8
  store ptr %this, ptr %this.addr, align 8
  %this1 = load ptr, ptr %this.addr, align 8
  %arrayidx = getelementptr inbounds [16 x i8], ptr %this1, i64 0, i64 0
  ret ptr %arrayidx
}

; Function Attrs: mustprogress uwtable
define internal void @"_ZSt13__invoke_implIvRZN18OpenImageIO_v2_6_023parallel_for_chunked_2DEllllllOSt8functionIFvllllEENS0_6paroptEE3$_0JillllEET_St14__invoke_otherOT0_DpOT1_"(ptr noundef nonnull align 8 dereferenceable(8) %__f, ptr noundef nonnull align 4 dereferenceable(4) %__args, ptr noundef nonnull align 8 dereferenceable(8) %__args1, ptr noundef nonnull align 8 dereferenceable(8) %__args3, ptr noundef nonnull align 8 dereferenceable(8) %__args5, ptr noundef nonnull align 8 dereferenceable(8) %__args7) #6 {
entry:
  %__f.addr = alloca ptr, align 8
  %__args.addr = alloca ptr, align 8
  %__args.addr2 = alloca ptr, align 8
  %__args.addr4 = alloca ptr, align 8
  %__args.addr6 = alloca ptr, align 8
  %__args.addr8 = alloca ptr, align 8
  store ptr %__f, ptr %__f.addr, align 8
  store ptr %__args, ptr %__args.addr, align 8
  store ptr %__args1, ptr %__args.addr2, align 8
  store ptr %__args3, ptr %__args.addr4, align 8
  store ptr %__args5, ptr %__args.addr6, align 8
  store ptr %__args7, ptr %__args.addr8, align 8
  %0 = load ptr, ptr %__f.addr, align 8
  %1 = load ptr, ptr %__args.addr, align 8
  %2 = load i32, ptr %1, align 4
  %3 = load ptr, ptr %__args.addr2, align 8
  %4 = load i64, ptr %3, align 8
  %5 = load ptr, ptr %__args.addr4, align 8
  %6 = load i64, ptr %5, align 8
  %7 = load ptr, ptr %__args.addr6, align 8
  %8 = load i64, ptr %7, align 8
  %9 = load ptr, ptr %__args.addr8, align 8
  %10 = load i64, ptr %9, align 8
  call void @"_ZZN18OpenImageIO_v2_6_023parallel_for_chunked_2DEllllllOSt8functionIFvllllEENS_6paroptEENK3$_0clEillll"(ptr noundef nonnull align 8 dereferenceable(8) %0, i32 noundef %2, i64 noundef %4, i64 noundef %6, i64 noundef %8, i64 noundef %10)
  ret void
}

; Function Attrs: mustprogress nounwind uwtable
define internal noundef nonnull align 8 dereferenceable(8) ptr @"_ZNKSt9_Any_data9_M_accessIZN18OpenImageIO_v2_6_023parallel_for_chunked_2DEllllllOSt8functionIFvllllEENS1_6paroptEE3$_0EERKT_v"(ptr noundef nonnull align 8 dereferenceable(16) %this) #1 align 2 {
entry:
  %this.addr = alloca ptr, align 8
  store ptr %this, ptr %this.addr, align 8
  %this1 = load ptr, ptr %this.addr, align 8
  %call = call noundef ptr @_ZNKSt9_Any_data9_M_accessEv(ptr noundef nonnull align 8 dereferenceable(16) %this1) #5
  ret ptr %call
}

; Function Attrs: mustprogress uwtable
define internal void @"_ZSt10__invoke_rIvRZN18OpenImageIO_v2_6_023parallel_for_chunked_2DEllllllOSt8functionIFvllllEENS0_6paroptEE3$_0JillllEENSt9enable_ifIX16is_invocable_r_vIT_T0_DpT1_EES9_E4typeEOSA_DpOSB_"(ptr noundef nonnull align 8 dereferenceable(8) %__fn, ptr noundef nonnull align 4 dereferenceable(4) %__args, ptr noundef nonnull align 8 dereferenceable(8) %__args1, ptr noundef nonnull align 8 dereferenceable(8) %__args3, ptr noundef nonnull align 8 dereferenceable(8) %__args5, ptr noundef nonnull align 8 dereferenceable(8) %__args7) #6 {
entry:
  %__fn.addr = alloca ptr, align 8
  %__args.addr = alloca ptr, align 8
  %__args.addr2 = alloca ptr, align 8
  %__args.addr4 = alloca ptr, align 8
  %__args.addr6 = alloca ptr, align 8
  %__args.addr8 = alloca ptr, align 8
  store ptr %__fn, ptr %__fn.addr, align 8
  store ptr %__args, ptr %__args.addr, align 8
  store ptr %__args1, ptr %__args.addr2, align 8
  store ptr %__args3, ptr %__args.addr4, align 8
  store ptr %__args5, ptr %__args.addr6, align 8
  store ptr %__args7, ptr %__args.addr8, align 8
  %0 = load ptr, ptr %__fn.addr, align 8
  %1 = load ptr, ptr %__args.addr, align 8
  %2 = load ptr, ptr %__args.addr2, align 8
  %3 = load ptr, ptr %__args.addr4, align 8
  %4 = load ptr, ptr %__args.addr6, align 8
  %5 = load ptr, ptr %__args.addr8, align 8
  call void @"_ZSt13__invoke_implIvRZN18OpenImageIO_v2_6_023parallel_for_chunked_2DEllllllOSt8functionIFvllllEENS0_6paroptEE3$_0JillllEET_St14__invoke_otherOT0_DpOT1_"(ptr noundef nonnull align 8 dereferenceable(8) %0, ptr noundef nonnull align 4 dereferenceable(4) %1, ptr noundef nonnull align 8 dereferenceable(8) %2, ptr noundef nonnull align 8 dereferenceable(8) %3, ptr noundef nonnull align 8 dereferenceable(8) %4, ptr noundef nonnull align 8 dereferenceable(8) %5)
  ret void
}

; Function Attrs: mustprogress nounwind uwtable
define internal noundef ptr @"_ZNSt14_Function_base13_Base_managerIZN18OpenImageIO_v2_6_023parallel_for_chunked_2DEllllllOSt8functionIFvllllEENS1_6paroptEE3$_0E14_M_get_pointerERKSt9_Any_data"(ptr noundef nonnull align 8 dereferenceable(16) %__source) #1 align 2 {
entry:
  %__source.addr = alloca ptr, align 8
  %__f = alloca ptr, align 8
  store ptr %__source, ptr %__source.addr, align 8
  %0 = load ptr, ptr %__source.addr, align 8
  %call = call noundef nonnull align 8 dereferenceable(8) ptr @"_ZNKSt9_Any_data9_M_accessIZN18OpenImageIO_v2_6_023parallel_for_chunked_2DEllllllOSt8functionIFvllllEENS1_6paroptEE3$_0EERKT_v"(ptr noundef nonnull align 8 dereferenceable(16) %0) #5
  store ptr %call, ptr %__f, align 8
  %1 = load ptr, ptr %__f, align 8
  ret ptr %1
}

; Function Attrs: mustprogress uwtable
define internal void @"_ZNSt17_Function_handlerIFvillllEZN18OpenImageIO_v2_6_023parallel_for_chunked_2DEllllllOSt8functionIFvllllEENS1_6paroptEE3$_0E9_M_invokeERKSt9_Any_dataOiOlSD_SD_SD_"(ptr noundef nonnull align 8 dereferenceable(16) %__functor, ptr noundef nonnull align 4 dereferenceable(4) %__args, ptr noundef nonnull align 8 dereferenceable(8) %__args1, ptr noundef nonnull align 8 dereferenceable(8) %__args3, ptr noundef nonnull align 8 dereferenceable(8) %__args5, ptr noundef nonnull align 8 dereferenceable(8) %__args7) #6 align 2 {
entry:
  %__functor.addr = alloca ptr, align 8
  %__args.addr = alloca ptr, align 8
  %__args.addr2 = alloca ptr, align 8
  %__args.addr4 = alloca ptr, align 8
  %__args.addr6 = alloca ptr, align 8
  %__args.addr8 = alloca ptr, align 8
  store ptr %__functor, ptr %__functor.addr, align 8
  store ptr %__args, ptr %__args.addr, align 8
  store ptr %__args1, ptr %__args.addr2, align 8
  store ptr %__args3, ptr %__args.addr4, align 8
  store ptr %__args5, ptr %__args.addr6, align 8
  store ptr %__args7, ptr %__args.addr8, align 8
  %0 = load ptr, ptr %__functor.addr, align 8
  %call = call noundef ptr @"_ZNSt14_Function_base13_Base_managerIZN18OpenImageIO_v2_6_023parallel_for_chunked_2DEllllllOSt8functionIFvllllEENS1_6paroptEE3$_0E14_M_get_pointerERKSt9_Any_data"(ptr noundef nonnull align 8 dereferenceable(16) %0) #5
  %1 = load ptr, ptr %__args.addr, align 8
  %2 = load ptr, ptr %__args.addr2, align 8
  %3 = load ptr, ptr %__args.addr4, align 8
  %4 = load ptr, ptr %__args.addr6, align 8
  %5 = load ptr, ptr %__args.addr8, align 8
  call void @"_ZSt10__invoke_rIvRZN18OpenImageIO_v2_6_023parallel_for_chunked_2DEllllllOSt8functionIFvllllEENS0_6paroptEE3$_0JillllEENSt9enable_ifIX16is_invocable_r_vIT_T0_DpT1_EES9_E4typeEOSA_DpOSB_"(ptr noundef nonnull align 8 dereferenceable(8) %call, ptr noundef nonnull align 4 dereferenceable(4) %1, ptr noundef nonnull align 8 dereferenceable(8) %2, ptr noundef nonnull align 8 dereferenceable(8) %3, ptr noundef nonnull align 8 dereferenceable(8) %4, ptr noundef nonnull align 8 dereferenceable(8) %5)
  ret void
}