; Function Attrs: mustprogress uwtable
define internal void @"_ZNSt17_Function_handlerIFvillllEZN18OpenImageIO_v2_6_023parallel_for_chunked_2DEllllllOSt8functionIFvllllEENS1_6paroptEE3$_0E9_M_invokeERKSt9_Any_dataOiOlSD_SD_SD_"(ptr nocapture noundef nonnull readonly align 8 dereferenceable(16) %__functor, ptr nocapture nonnull readonly align 4 %__args, ptr nocapture noundef nonnull readonly align 8 dereferenceable(8) %__args1, ptr nocapture noundef nonnull readonly align 8 dereferenceable(8) %__args3, ptr nocapture noundef nonnull readonly align 8 dereferenceable(8) %__args5, ptr nocapture noundef nonnull readonly align 8 dereferenceable(8) %__args7) #4 align 2 {
entry:
  %__args.addr.i.i.i.i = alloca i64, align 8
  %__args.addr2.i.i.i.i = alloca i64, align 8
  %__args.addr4.i.i.i.i = alloca i64, align 8
  %__args.addr6.i.i.i.i = alloca i64, align 8
  %call.val = load ptr, ptr %__functor, align 8
  %__args1.val = load i64, ptr %__args1, align 8
  %__args3.val = load i64, ptr %__args3, align 8
  %__args5.val = load i64, ptr %__args5, align 8
  %__args7.val = load i64, ptr %__args7, align 8
  call void @llvm.lifetime.start.p0(i64 8, ptr nonnull %__args.addr.i.i.i.i)
  call void @llvm.lifetime.start.p0(i64 8, ptr nonnull %__args.addr2.i.i.i.i)
  call void @llvm.lifetime.start.p0(i64 8, ptr nonnull %__args.addr4.i.i.i.i)
  call void @llvm.lifetime.start.p0(i64 8, ptr nonnull %__args.addr6.i.i.i.i)
  store i64 %__args1.val, ptr %__args.addr.i.i.i.i, align 8
  store i64 %__args3.val, ptr %__args.addr2.i.i.i.i, align 8
  store i64 %__args5.val, ptr %__args.addr4.i.i.i.i, align 8
  store i64 %__args7.val, ptr %__args.addr6.i.i.i.i, align 8
  %_M_manager.i.i.i.i.i = getelementptr inbounds i8, ptr %call.val, i64 16
  %0 = load ptr, ptr %_M_manager.i.i.i.i.i, align 8
  %tobool.not.i.i.i.i.i = icmp eq ptr %0, null
  br i1 %tobool.not.i.i.i.i.i, label %if.then.i.i.i.i, label %"_ZSt10__invoke_rIvRZN18OpenImageIO_v2_6_023parallel_for_chunked_2DEllllllOSt8functionIFvllllEENS0_6paroptEE3$_0JillllEENSt9enable_ifIX16is_invocable_r_vIT_T0_DpT1_EES9_E4typeEOSA_DpOSB_.exit"

if.then.i.i.i.i:                                  ; preds = %entry
  tail call void @_ZSt25__throw_bad_function_callv() #28
  unreachable

"_ZSt10__invoke_rIvRZN18OpenImageIO_v2_6_023parallel_for_chunked_2DEllllllOSt8functionIFvllllEENS0_6paroptEE3$_0JillllEENSt9enable_ifIX16is_invocable_r_vIT_T0_DpT1_EES9_E4typeEOSA_DpOSB_.exit": ; preds = %entry
  %_M_invoker.i.i.i.i = getelementptr inbounds i8, ptr %call.val, i64 24
  %1 = load ptr, ptr %_M_invoker.i.i.i.i, align 8
  call void %1(ptr noundef nonnull align 8 dereferenceable(16) %call.val, ptr noundef nonnull align 8 dereferenceable(8) %__args.addr.i.i.i.i, ptr noundef nonnull align 8 dereferenceable(8) %__args.addr2.i.i.i.i, ptr noundef nonnull align 8 dereferenceable(8) %__args.addr4.i.i.i.i, ptr noundef nonnull align 8 dereferenceable(8) %__args.addr6.i.i.i.i)
  call void @llvm.lifetime.end.p0(i64 8, ptr nonnull %__args.addr.i.i.i.i)
  call void @llvm.lifetime.end.p0(i64 8, ptr nonnull %__args.addr2.i.i.i.i)
  call void @llvm.lifetime.end.p0(i64 8, ptr nonnull %__args.addr4.i.i.i.i)
  call void @llvm.lifetime.end.p0(i64 8, ptr nonnull %__args.addr6.i.i.i.i)
  ret void
}